target datalayout = "e-m:e-p270:32:32-p271:32:32-p272:64:64-i64:64-i128:128-f80:128-n8:16:32:64-S128"
target triple = "x86_64-pc-linux-gnu"

%struct._lv_spinbox_t = type { %struct._lv_textarea_t, i32, i32, i32, i32, i16 }
%struct._lv_textarea_t = type { %struct._lv_obj_t, ptr, ptr, ptr, ptr, ptr, i32, i32, %struct.anon, i32, i32, i8 }
%struct._lv_obj_t = type { ptr, ptr, ptr, ptr, ptr, %struct.lv_area_t, i32, i16, i16 }
%struct.lv_area_t = type { i32, i32, i32, i32 }
%struct.anon = type { i32, i32, %struct.lv_area_t, i32, i8 }

; Function Attrs: nounwind uwtable
define void @lv_spinbox_set_rollover(ptr noundef %0, i1 noundef zeroext %1) #0 {
  %3 = alloca ptr, align 8
  %4 = alloca i8, align 1
  %5 = alloca ptr, align 8
  store ptr %0, ptr %3, align 8, !tbaa !3
  %6 = zext i1 %1 to i8
  store i8 %6, ptr %4, align 1, !tbaa !30
  br label %7

7:                                                ; preds = %2
  br label %8

8:                                                ; preds = %7
  call void @llvm.lifetime.start.p0(i64 8, ptr %5) #4
  %9 = load ptr, ptr %3, align 8, !tbaa !3
  store ptr %9, ptr %5, align 8, !tbaa !3
  %10 = load i8, ptr %4, align 1, !tbaa !30, !range !32, !noundef !33
  %11 = trunc i8 %10 to i1
  %12 = zext i1 %11 to i32
  %13 = load ptr, ptr %5, align 8, !tbaa !3
  %14 = getelementptr inbounds nuw %struct._lv_spinbox_t, ptr %13, i32 0, i32 5
  %15 = trunc i32 %12 to i16
  %16 = load i16, ptr %14, align 8
  %17 = and i16 %15, 1
  %18 = shl i16 %17, 8
  %19 = and i16 %16, -257
  %20 = or i16 %19, %18
  store i16 %20, ptr %14, align 8
  call void @llvm.lifetime.end.p0(i64 8, ptr %5) #4
  ret void
}