; Function Attrs: mustprogress nofree norecurse nosync nounwind willreturn memory(argmem: readwrite) uwtable
define void @lv_spinbox_set_rollover(ptr nocapture noundef %0, i1 noundef zeroext %1) local_unnamed_addr #3 {
  %3 = getelementptr inbounds nuw i8, ptr %0, i64 176
  %4 = load i16, ptr %3, align 8
  %5 = select i1 %1, i16 256, i16 0
  %6 = and i16 %4, -257
  %7 = or disjoint i16 %6, %5
  store i16 %7, ptr %3, align 8
  ret void
}